target datalayout = "e-m:e-p270:32:32-p271:32:32-p272:64:64-i64:64-i128:128-f80:128-n8:16:32:64-S128"
target triple = "x86_64-pc-linux-gnu"

; Function Attrs: nounwind uwtable
define hidden zeroext i1 @SDL_ChannelMapIsBogus(ptr noundef %0, i32 noundef %1) #0 {
  %3 = alloca i1, align 1
  %4 = alloca ptr, align 8
  %5 = alloca i32, align 4
  %6 = alloca i32, align 4
  %7 = alloca i32, align 4
  %8 = alloca i32, align 4
  store ptr %0, ptr %4, align 8
  store i32 %1, ptr %5, align 4
  %9 = load ptr, ptr %4, align 8
  %10 = icmp ne ptr %9, null
  br i1 %10, label %11, label %40

11:                                               ; preds = %2
  call void @llvm.lifetime.start.p0(i64 4, ptr %6) #7
  store i32 0, ptr %6, align 4
  br label %12

12:                                               ; preds = %34, %11
  %13 = load i32, ptr %6, align 4
  %14 = load i32, ptr %5, align 4
  %15 = icmp slt i32 %13, %14
  br i1 %15, label %17, label %16

16:                                               ; preds = %12
  store i32 2, ptr %7, align 4
  br label %37

17:                                               ; preds = %12
  call void @llvm.lifetime.start.p0(i64 4, ptr %8) #7
  %18 = load ptr, ptr %4, align 8
  %19 = load i32, ptr %6, align 4
  %20 = sext i32 %19 to i64
  %21 = getelementptr inbounds i32, ptr %18, i64 %20
  %22 = load i32, ptr %21, align 4
  store i32 %22, ptr %8, align 4
  %23 = load i32, ptr %8, align 4
  %24 = icmp slt i32 %23, -1
  br i1 %24, label %29, label %25

25:                                               ; preds = %17
  %26 = load i32, ptr %8, align 4
  %27 = load i32, ptr %5, align 4
  %28 = icmp sge i32 %26, %27
  br i1 %28, label %29, label %30

29:                                               ; preds = %25, %17
  store i1 true, ptr %3, align 1
  store i32 1, ptr %7, align 4
  br label %31

30:                                               ; preds = %25
  store i32 0, ptr %7, align 4
  br label %31

31:                                               ; preds = %30, %29
  call void @llvm.lifetime.end.p0(i64 4, ptr %8) #7
  %32 = load i32, ptr %7, align 4
  switch i32 %32, label %37 [
    i32 0, label %33
  ]

33:                                               ; preds = %31
  br label %34

34:                                               ; preds = %33
  %35 = load i32, ptr %6, align 4
  %36 = add nsw i32 %35, 1
  store i32 %36, ptr %6, align 4
  br label %12, !llvm.loop !3

37:                                               ; preds = %31, %16
  call void @llvm.lifetime.end.p0(i64 4, ptr %6) #7
  %38 = load i32, ptr %7, align 4
  switch i32 %38, label %43 [
    i32 2, label %39
    i32 1, label %41
  ]

39:                                               ; preds = %37
  br label %40

40:                                               ; preds = %39, %2
  store i1 false, ptr %3, align 1
  br label %41

41:                                               ; preds = %40, %37
  %42 = load i1, ptr %3, align 1
  ret i1 %42

43:                                               ; preds = %37
  unreachable
}