; Function Attrs: nofree norecurse nosync nounwind memory(argmem: read) uwtable
define hidden noundef zeroext i1 @SDL_ChannelMapIsBogus(ptr noundef readonly captures(address_is_null) %0, i32 noundef %1) local_unnamed_addr #0 {
  %.not = icmp ne ptr %0, null
  %3 = icmp sgt i32 %1, 0
  %or.cond23 = and i1 %.not, %3
  br i1 %or.cond23, label %.critedge.preheader, label %.thread

.critedge.preheader:                              ; preds = %2
  %wide.trip.count = zext nneg i32 %1 to i64
  br label %.critedge

.critedge:                                        ; preds = %.critedge, %.critedge.preheader
  %indvars.iv = phi i64 [ 0, %.critedge.preheader ], [ %indvars.iv.next, %.critedge ]
  %4 = getelementptr inbounds nuw i32, ptr %0, i64 %indvars.iv
  %5 = load i32, ptr %4, align 4
  %6 = icmp slt i32 %5, -1
  %.not17 = icmp sge i32 %5, %1
  %or.cond.not = or i1 %6, %.not17
  %indvars.iv.next = add nuw nsw i64 %indvars.iv, 1
  %exitcond.not = icmp eq i64 %indvars.iv.next, %wide.trip.count
  %or.cond = select i1 %or.cond.not, i1 true, i1 %exitcond.not
  br i1 %or.cond, label %.thread, label %.critedge, !llvm.loop !3

.thread:                                          ; preds = %.critedge, %2
  %.3 = phi i1 [ false, %2 ], [ %or.cond.not, %.critedge ]
  ret i1 %.3
}